target datalayout = "e-m:e-p270:32:32-p271:32:32-p272:64:64-i64:64-i128:128-f80:128-n8:16:32:64-S128"
target triple = "x86_64-pc-linux-gnu"

%struct.mbedtls_pk_info_t = type { i32, ptr, ptr, ptr, ptr, ptr, ptr, ptr, ptr, ptr, ptr, ptr }
%struct.mbedtls_pk_context = type { ptr, ptr }

; Function Attrs: inlinehint mustprogress uwtable
define internal noundef i32 @_ZL17pk_hashlen_helper17mbedtls_md_type_tPm(i32 noundef %0, ptr noundef %1) #3 {
  %3 = alloca i32, align 4
  %4 = alloca i32, align 4
  %5 = alloca ptr, align 8
  %6 = alloca ptr, align 8
  %7 = alloca i32, align 4
  store i32 %0, ptr %4, align 4, !tbaa !20
  store ptr %1, ptr %5, align 8, !tbaa !27
  call void @llvm.lifetime.start.p0(i64 8, ptr %6) #5
  %8 = load ptr, ptr %5, align 8, !tbaa !27
  %9 = load i64, ptr %8, align 8, !tbaa !23
  %10 = icmp ne i64 %9, 0
  br i1 %10, label %11, label %12

11:                                               ; preds = %2
  store i32 0, ptr %3, align 4
  store i32 1, ptr %7, align 4
  br label %22

12:                                               ; preds = %2
  %13 = load i32, ptr %4, align 4, !tbaa !20
  %14 = call ptr @mbedtls_md_info_from_type(i32 noundef %13)
  store ptr %14, ptr %6, align 8, !tbaa !29
  %15 = icmp eq ptr %14, null
  br i1 %15, label %16, label %17

16:                                               ; preds = %12
  store i32 -1, ptr %3, align 4
  store i32 1, ptr %7, align 4
  br label %22

17:                                               ; preds = %12
  %18 = load ptr, ptr %6, align 8, !tbaa !29
  %19 = call zeroext i8 @mbedtls_md_get_size(ptr noundef %18)
  %20 = zext i8 %19 to i64
  %21 = load ptr, ptr %5, align 8, !tbaa !27
  store i64 %20, ptr %21, align 8, !tbaa !23
  store i32 0, ptr %3, align 4
  store i32 1, ptr %7, align 4
  br label %22

22:                                               ; preds = %17, %16, %11
  call void @llvm.lifetime.end.p0(i64 8, ptr %6) #5
  %23 = load i32, ptr %3, align 4
  ret i32 %23
}

; Function Attrs: mustprogress uwtable
define hidden i32 @mbedtls_pk_sign_restartable(ptr noundef %0, i32 noundef %1, ptr noundef %2, i64 noundef %3, ptr noundef %4, i64 noundef %5, ptr noundef %6, ptr noundef %7, ptr noundef %8, ptr noundef %9) #1 {
  %11 = alloca i32, align 4
  %12 = alloca ptr, align 8
  %13 = alloca i32, align 4
  %14 = alloca ptr, align 8
  %15 = alloca i64, align 8
  %16 = alloca ptr, align 8
  %17 = alloca i64, align 8
  %18 = alloca ptr, align 8
  %19 = alloca ptr, align 8
  %20 = alloca ptr, align 8
  %21 = alloca ptr, align 8
  store ptr %0, ptr %12, align 8, !tbaa !3
  store i32 %1, ptr %13, align 4, !tbaa !20
  store ptr %2, ptr %14, align 8, !tbaa !22
  store i64 %3, ptr %15, align 8, !tbaa !23
  store ptr %4, ptr %16, align 8, !tbaa !22
  store i64 %5, ptr %17, align 8, !tbaa !23
  store ptr %6, ptr %18, align 8, !tbaa !27
  store ptr %7, ptr %19, align 8, !tbaa !25
  store ptr %8, ptr %20, align 8, !tbaa !25
  store ptr %9, ptr %21, align 8, !tbaa !25
  br label %22

22:                                               ; preds = %10
  br label %23

23:                                               ; preds = %22
  br label %24

24:                                               ; preds = %23
  br label %25

25:                                               ; preds = %24
  br label %26

26:                                               ; preds = %25
  br label %27

27:                                               ; preds = %26
  %28 = load ptr, ptr %12, align 8, !tbaa !3
  %29 = getelementptr inbounds nuw %struct.mbedtls_pk_context, ptr %28, i32 0, i32 0
  %30 = load ptr, ptr %29, align 8, !tbaa !8
  %31 = icmp eq ptr %30, null
  br i1 %31, label %36, label %32

32:                                               ; preds = %27
  %33 = load i32, ptr %13, align 4, !tbaa !20
  %34 = call noundef i32 @_ZL17pk_hashlen_helper17mbedtls_md_type_tPm(i32 noundef %33, ptr noundef %15)
  %35 = icmp ne i32 %34, 0
  br i1 %35, label %36, label %37

36:                                               ; preds = %32, %27
  store i32 -16000, ptr %11, align 4
  br label %63

37:                                               ; preds = %32
  %38 = load ptr, ptr %12, align 8, !tbaa !3
  %39 = getelementptr inbounds nuw %struct.mbedtls_pk_context, ptr %38, i32 0, i32 0
  %40 = load ptr, ptr %39, align 8, !tbaa !8
  %41 = getelementptr inbounds nuw %struct.mbedtls_pk_info_t, ptr %40, i32 0, i32 5
  %42 = load ptr, ptr %41, align 8, !tbaa !31
  %43 = icmp eq ptr %42, null
  br i1 %43, label %44, label %45

44:                                               ; preds = %37
  store i32 -16128, ptr %11, align 4
  br label %63

45:                                               ; preds = %37
  %46 = load ptr, ptr %12, align 8, !tbaa !3
  %47 = getelementptr inbounds nuw %struct.mbedtls_pk_context, ptr %46, i32 0, i32 0
  %48 = load ptr, ptr %47, align 8, !tbaa !8
  %49 = getelementptr inbounds nuw %struct.mbedtls_pk_info_t, ptr %48, i32 0, i32 5
  %50 = load ptr, ptr %49, align 8, !tbaa !31
  %51 = load ptr, ptr %12, align 8, !tbaa !3
  %52 = getelementptr inbounds nuw %struct.mbedtls_pk_context, ptr %51, i32 0, i32 1
  %53 = load ptr, ptr %52, align 8, !tbaa !11
  %54 = load i32, ptr %13, align 4, !tbaa !20
  %55 = load ptr, ptr %14, align 8, !tbaa !22
  %56 = load i64, ptr %15, align 8, !tbaa !23
  %57 = load ptr, ptr %16, align 8, !tbaa !22
  %58 = load i64, ptr %17, align 8, !tbaa !23
  %59 = load ptr, ptr %18, align 8, !tbaa !27
  %60 = load ptr, ptr %19, align 8, !tbaa !25
  %61 = load ptr, ptr %20, align 8, !tbaa !25
  %62 = call noundef i32 %50(ptr noundef %53, i32 noundef %54, ptr noundef %55, i64 noundef %56, ptr noundef %57, i64 noundef %58, ptr noundef %59, ptr noundef %60, ptr noundef %61)
  store i32 %62, ptr %11, align 4
  br label %63

63:                                               ; preds = %45, %44, %36
  %64 = load i32, ptr %11, align 4
  ret i32 %64
}