; Function Attrs: mustprogress uwtable
define hidden noundef i32 @mbedtls_pk_sign_restartable(ptr noundef readonly captures(none) %0, i32 noundef %1, ptr noundef %2, i64 noundef %3, ptr noundef %4, i64 noundef %5, ptr noundef %6, ptr noundef %7, ptr noundef %8, ptr noundef readnone captures(none) %9) local_unnamed_addr #1 {
  %11 = load ptr, ptr %0, align 8, !tbaa !3
  %12 = icmp eq ptr %11, null
  br i1 %12, label %_ZL17pk_hashlen_helper17mbedtls_md_type_tPm.exit, label %13

13:                                               ; preds = %10
  %.not.i = icmp eq i64 %3, 0
  br i1 %.not.i, label %14, label %20

14:                                               ; preds = %13
  %15 = tail call ptr @mbedtls_md_info_from_type(i32 noundef %1)
  %16 = icmp eq ptr %15, null
  br i1 %16, label %_ZL17pk_hashlen_helper17mbedtls_md_type_tPm.exit, label %17

17:                                               ; preds = %14
  %18 = tail call zeroext i8 @mbedtls_md_get_size(ptr noundef nonnull %15)
  %19 = zext i8 %18 to i64
  %.pre = load ptr, ptr %0, align 8, !tbaa !3
  br label %20

20:                                               ; preds = %17, %13
  %21 = phi ptr [ %11, %13 ], [ %.pre, %17 ]
  %.014.ph = phi i64 [ %3, %13 ], [ %19, %17 ]
  %22 = getelementptr inbounds nuw i8, ptr %21, i64 40
  %23 = load ptr, ptr %22, align 8, !tbaa !17
  %24 = icmp eq ptr %23, null
  br i1 %24, label %_ZL17pk_hashlen_helper17mbedtls_md_type_tPm.exit, label %25

25:                                               ; preds = %20
  %26 = getelementptr inbounds nuw i8, ptr %0, i64 8
  %27 = load ptr, ptr %26, align 8, !tbaa !13
  %28 = tail call noundef i32 %23(ptr noundef %27, i32 noundef %1, ptr noundef %2, i64 noundef %.014.ph, ptr noundef %4, i64 noundef %5, ptr noundef %6, ptr noundef %7, ptr noundef %8)
  br label %_ZL17pk_hashlen_helper17mbedtls_md_type_tPm.exit

_ZL17pk_hashlen_helper17mbedtls_md_type_tPm.exit: ; preds = %14, %20, %10, %25
  %.0 = phi i32 [ %28, %25 ], [ -16000, %10 ], [ -16128, %20 ], [ -16000, %14 ]
  ret i32 %.0
}